Certificate:
    Data:
        Version: 1 (0x0)
        Serial Number: 1 (0x1)
        Signature Algorithm: md2WithRSAEncryption
        Issuer: CN=CA
        Validity
            Not Before: Jul  8 09:40:08 2009 GMT
            Not After : Jul  6 09:40:08 2019 GMT
        Subject: C=US, ST=Arizona, O=Testlib, CN=server
        Subject Public Key Info:
            Public Key Algorithm: rsaEncryption
            RSA Public Key: (1024 bit)
                Modulus (1024 bit):
                    00:c7:1a:4f:ef:12:06:bd:89:14:9b:29:51:e3:49:
                    1d:4f:b8:d7:73:e5:23:00:9b:97:b0:06:17:ff:a4:
                    af:a9:9b:74:0f:21:7a:fd:fe:be:23:55:a8:22:bb:
                    21:fa:e0:d5:40:f8:76:39:79:15:a1:25:45:fc:6a:
                    da:e2:f7:13:8b:94:fa:31:0e:5c:15:d8:5a:a1:e7:
                    07:3a:0b:b3:8f:07:7f:79:f9:2a:97:33:90:b6:c1:
                    86:44:b3:b7:c9:e6:3b:99:bd:3f:3b:29:33:60:80:
                    da:70:68:49:a4:cf:52:e1:0e:6d:af:0b:c9:2b:35:
                    94:62:8d:1c:82:8a:21:d1:f9
                Exponent: 65537 (0x10001)
    Signature Algorithm: md2WithRSAEncryption
        3a:bd:52:a3:f2:33:39:ed:94:3f:e6:f2:ee:55:f5:0d:38:88:
        98:f4:5d:8b:8d:a9:67:ff:64:51:89:dd:d9:4e:05:8f:ce:68:
        37:f8:fe:c0:88:27:55:86:20:8b:e0:a5:10:1c:17:7d:db:9b:
        74:a2:94:32:29:26:1a:57:58:3c:f5:f5:ed:c8:f8:01:d6:bf:
        d8:48:b3:74:85:de:5a:f8:16:8f:51:d8:0b:a1:1c:f9:74:43:
        e5:00:b0:2a:bd:1e:6c:63:c1:fb:be:39:e8:45:0f:29:79:76:
        df:1e:74:2c:6c:be:6b:b7:7e:a0:04:d7:fb:fc:5c:e4:eb:a8:
        14:db
-----BEGIN CERTIFICATE-----
MIIBvjCCAScCAQEwDQYJKoZIhvcNAQECBQAwDTELMAkGA1UEAxMCQ0EwHhcNMDkw
NzA4MDk0MDA4WhcNMTkwNzA2MDk0MDA4WjBCMQswCQYDVQQGEwJVUzEQMA4GA1UE
CBMHQXJpem9uYTEQMA4GA1UEChMHVGVzdGxpYjEPMA0GA1UEAxMGc2VydmVyMIGf
MA0GCSqGSIb3DQEBAQUAA4GNADCBiQKBgQDHGk/vEga9iRSbKVHjSR1PuNdz5SMA
m5ewBhf/pK+pm3QPIXr9/r4jVagiuyH64NVA+HY5eRWhJUX8atri9xOLlPoxDlwV
2Fqh5wc6C7OPB395+SqXM5C2wYZEs7fJ5juZvT87KTNggNpwaEmkz1LhDm2vC8kr
NZRijRyCiiHR+QIDAQABMA0GCSqGSIb3DQEBAgUAA4GBADq9UqPyMzntlD/m8u5V
9Q04iJj0XYuNqWf/ZFGJ3dlOBY/OaDf4/sCIJ1WGIIvgpRAcF33bm3SilDIpJhpX
WDz19e3I+AHWv9hIs3SF3lr4Fo9R2AuhHPl0Q+UAsCq9Hmxjwfu+OehFDyl5dt8e
dCxsvmu3fqAE1/v8XOTrqBTb
-----END CERTIFICATE-----
